; Function Attrs: mustprogress uwtable
define void @_ZN9grpc_core19LoadBalancingPolicy6OrphanEv(ptr noundef nonnull align 8 dereferenceable(56) %this) unnamed_addr #3 align 2 {
entry:
  %vtable = load ptr, ptr %this, align 8
  %vfn = getelementptr inbounds i8, ptr %vtable, i64 56
  %0 = load ptr, ptr %vfn, align 8
  tail call void %0(ptr noundef nonnull align 8 dereferenceable(56) %this)
  %refs_.i = getelementptr inbounds i8, ptr %this, i64 8
  %1 = atomicrmw sub ptr %refs_.i, i64 1 acq_rel, align 8
  %cmp.i.i = icmp eq i64 %1, 1
  br i1 %cmp.i.i, label %if.then.i, label %_ZN9grpc_core20InternallyRefCountedINS_19LoadBalancingPolicyENS_11UnrefDeleteEE5UnrefERKNS_13DebugLocationEPKc.exit

if.then.i:                                        ; preds = %entry
  %vtable.i.i = load ptr, ptr %this, align 8
  %vfn.i.i = getelementptr inbounds i8, ptr %vtable.i.i, i64 16
  %2 = load ptr, ptr %vfn.i.i, align 8
  tail call void %2(ptr noundef nonnull align 8 dereferenceable(56) %this) #14
  br label %_ZN9grpc_core20InternallyRefCountedINS_19LoadBalancingPolicyENS_11UnrefDeleteEE5UnrefERKNS_13DebugLocationEPKc.exit

_ZN9grpc_core20InternallyRefCountedINS_19LoadBalancingPolicyENS_11UnrefDeleteEE5UnrefERKNS_13DebugLocationEPKc.exit: ; preds = %entry, %if.then.i
  ret void
}